; Function Attrs: mustprogress uwtable
define noundef i64 @_ZN9syscall_t9sys_chdirEmmmmmmm(ptr nocapture noundef nonnull readonly align 8 dereferenceable(176) %0, i64 noundef %1, i64 %2, i64 %3, i64 %4, i64 %5, i64 %6, i64 %7) #3 align 2 personality ptr @__gxx_personality_v0 {
  %9 = alloca %"class.std::vector.40", align 8
  %10 = alloca %"class.std::allocator.20", align 1
  %11 = getelementptr inbounds i8, ptr %0, i64 64
  br label %12

12:                                               ; preds = %12, %8
  %.012 = phi i64 [ 0, %8 ], [ %14, %12 ]
  %13 = load ptr, ptr %11, align 8
  %14 = add i64 %.012, 1
  %15 = add i64 %.012, %1
  %16 = load ptr, ptr %13, align 8
  %17 = getelementptr inbounds i8, ptr %16, i64 32
  %18 = load ptr, ptr %17, align 8
  %19 = tail call i8 %18(ptr noundef nonnull align 8 dereferenceable(16) %13, i64 noundef %15)
  %.not = icmp eq i8 %19, 0
  br i1 %.not, label %20, label %12, !llvm.loop !28

20:                                               ; preds = %12
  call void @_ZNSaIcEC1Ev(ptr noundef nonnull align 1 dereferenceable(1) %10) #26
  invoke void @_ZNSt6vectorIcSaIcEEC2EmRKS0_(ptr noundef nonnull align 8 dereferenceable(24) %9, i64 noundef %14, ptr noundef nonnull align 1 dereferenceable(1) %10)
          to label %21 unwind label %36

21:                                               ; preds = %20
  call void @_ZNSaIcED1Ev(ptr noundef nonnull align 1 dereferenceable(1) %10) #26
  br label %22

22:                                               ; preds = %29, %21
  %.0 = phi i64 [ 0, %21 ], [ %35, %29 ]
  %23 = load ptr, ptr %11, align 8
  %24 = add i64 %.0, %1
  %25 = load ptr, ptr %23, align 8
  %26 = getelementptr inbounds i8, ptr %25, i64 32
  %27 = load ptr, ptr %26, align 8
  %28 = invoke i8 %27(ptr noundef nonnull align 8 dereferenceable(16) %23, i64 noundef %24)
          to label %29 unwind label %38

29:                                               ; preds = %22
  %30 = load ptr, ptr %9, align 8
  %31 = getelementptr inbounds i8, ptr %30, i64 %.0
  store i8 %28, ptr %31, align 1
  %32 = load ptr, ptr %9, align 8
  %33 = getelementptr inbounds i8, ptr %32, i64 %.0
  %34 = load i8, ptr %33, align 1
  %.not14 = icmp eq i8 %34, 0
  %35 = add i64 %.0, 1
  br i1 %.not14, label %40, label %22, !llvm.loop !29

36:                                               ; preds = %20
  %37 = landingpad { ptr, i32 }
          cleanup
  call void @_ZNSaIcED1Ev(ptr noundef nonnull align 1 dereferenceable(1) %10) #26
  br label %50

38:                                               ; preds = %22
  %39 = landingpad { ptr, i32 }
          cleanup
  call void @_ZNSt6vectorIcSaIcEED2Ev(ptr noundef nonnull align 8 dereferenceable(24) %9) #26
  br label %50

40:                                               ; preds = %29
  %41 = call i32 @chdir(ptr noundef nonnull %32) #26
  %42 = icmp eq i32 %41, -1
  br i1 %42, label %43, label %_ZL12sysret_errnol.exit

43:                                               ; preds = %40
  %44 = tail call ptr @__errno_location() #30
  %45 = load i32, ptr %44, align 4
  %46 = sub nsw i32 0, %45
  br label %_ZL12sysret_errnol.exit

_ZL12sysret_errnol.exit:                          ; preds = %40, %43
  %.in = phi i32 [ %46, %43 ], [ %41, %40 ]
  %47 = load ptr, ptr %9, align 8
  %.not.i.i.i = icmp eq ptr %47, null
  br i1 %.not.i.i.i, label %_ZNSt6vectorIcSaIcEED2Ev.exit, label %48

48:                                               ; preds = %_ZL12sysret_errnol.exit
  call void @_ZdlPv(ptr noundef nonnull %47) #29
  br label %_ZNSt6vectorIcSaIcEED2Ev.exit

_ZNSt6vectorIcSaIcEED2Ev.exit:                    ; preds = %_ZL12sysret_errnol.exit, %48
  %49 = sext i32 %.in to i64
  call void @_ZNSaIcED2Ev(ptr noundef nonnull align 1 dereferenceable(1) %9) #26
  ret i64 %49

50:                                               ; preds = %38, %36
  %.pn = phi { ptr, i32 } [ %39, %38 ], [ %37, %36 ]
  resume { ptr, i32 } %.pn
}